; Function Attrs: mustprogress uwtable
define internal noundef range(i32 0, 3) i32 @_ZL8iter_auxP9lua_State(ptr noundef %0) #0 {
  %2 = alloca i64, align 8
  call void @llvm.lifetime.start.p0(i64 8, ptr nonnull %2) #4
  %3 = call noundef ptr @_Z17luaL_checklstringP9lua_StateiPm(ptr noundef %0, i32 noundef 1, ptr noundef nonnull %2)
  %4 = call noundef i32 @_Z14lua_tointegerxP9lua_StateiPi(ptr noundef %0, i32 noundef 2, ptr noundef null)
  %5 = icmp slt i32 %4, 1
  %.pre = load i64, ptr %2, align 8, !tbaa !4
  br i1 %5, label %..loopexit_crit_edge, label %6

..loopexit_crit_edge:                             ; preds = %1
  %.pre31 = trunc i64 %.pre to i32
  br label %.loopexit

6:                                                ; preds = %1
  %7 = add nsw i32 %4, -1
  %8 = trunc i64 %.pre to i32
  %.not = icmp sgt i32 %4, %8
  br i1 %.not, label %.loopexit, label %.preheader.preheader

.preheader.preheader:                             ; preds = %6
  %9 = zext nneg i32 %4 to i64
  br label %.preheader

.preheader:                                       ; preds = %.preheader.preheader, %.preheader
  %indvars.iv = phi i64 [ %9, %.preheader.preheader ], [ %indvars.iv.next, %.preheader ]
  %10 = getelementptr inbounds nuw i8, ptr %3, i64 %indvars.iv
  %11 = load i8, ptr %10, align 1, !tbaa !8
  %12 = icmp slt i8 %11, -64
  %indvars.iv.next = add nuw nsw i64 %indvars.iv, 1
  br i1 %12, label %.preheader, label %.loopexit.loopexit, !llvm.loop !22

.loopexit.loopexit:                               ; preds = %.preheader
  %13 = trunc nuw i64 %indvars.iv to i32
  br label %.loopexit

.loopexit:                                        ; preds = %..loopexit_crit_edge, %.loopexit.loopexit, %6
  %.pre-phi = phi i32 [ %.pre31, %..loopexit_crit_edge ], [ %8, %.loopexit.loopexit ], [ %8, %6 ]
  %.017 = phi i32 [ 0, %..loopexit_crit_edge ], [ %13, %.loopexit.loopexit ], [ %7, %6 ]
  %.not20 = icmp slt i32 %.017, %.pre-phi
  br i1 %.not20, label %14, label %49

14:                                               ; preds = %.loopexit
  %15 = sext i32 %.017 to i64
  %16 = getelementptr inbounds i8, ptr %3, i64 %15
  %17 = load i8, ptr %16, align 1, !tbaa !8
  %18 = zext i8 %17 to i32
  %19 = icmp sgt i8 %17, -1
  br i1 %19, label %43, label %.preheader.i

.preheader.i:                                     ; preds = %14, %21
  %indvars.iv.i = phi i64 [ %indvars.iv.next.i, %21 ], [ 0, %14 ]
  %.036.i = phi i32 [ %29, %21 ], [ %18, %14 ]
  %.133.i = phi i32 [ %28, %21 ], [ 0, %14 ]
  %20 = and i32 %.036.i, 64
  %.not.i = icmp eq i32 %20, 0
  br i1 %.not.i, label %30, label %21

21:                                               ; preds = %.preheader.i
  %indvars.iv.next.i = add nuw nsw i64 %indvars.iv.i, 1
  %22 = getelementptr inbounds nuw i8, ptr %16, i64 %indvars.iv.next.i
  %23 = load i8, ptr %22, align 1, !tbaa !8
  %24 = zext i8 %23 to i32
  %25 = and i32 %24, 192
  %.not45.i = icmp eq i32 %25, 128
  %26 = shl i32 %.133.i, 6
  %27 = and i32 %24, 63
  %28 = or disjoint i32 %27, %26
  %29 = shl i32 %.036.i, 1
  br i1 %.not45.i, label %.preheader.i, label %_ZL11utf8_decodePKcPi.exit.thread, !llvm.loop !15

30:                                               ; preds = %.preheader.i
  %31 = trunc nuw nsw i64 %indvars.iv.i to i32
  %32 = and i32 %.036.i, 63
  %33 = mul nuw nsw i32 %31, 5
  %34 = shl i32 %32, %33
  %35 = or i32 %34, %.133.i
  %36 = icmp samesign ugt i64 %indvars.iv.i, 3
  %37 = icmp ugt i32 %35, 1114111
  %or.cond.i = select i1 %36, i1 true, i1 %37
  br i1 %or.cond.i, label %_ZL11utf8_decodePKcPi.exit.thread, label %38

38:                                               ; preds = %30
  %39 = getelementptr inbounds nuw [4 x i32], ptr @_ZZL11utf8_decodePKcPiE6limits, i64 0, i64 %indvars.iv.i
  %40 = load i32, ptr %39, align 4, !tbaa !16
  %.not44.i = icmp ugt i32 %35, %40
  %41 = and i32 %35, 2095104
  %42 = icmp ne i32 %41, 55296
  %or.cond48.not.i = and i1 %42, %.not44.i
  %spec.select.idx.i = select i1 %or.cond48.not.i, i64 %indvars.iv.i, i64 0
  %spec.select.i = getelementptr inbounds nuw i8, ptr %16, i64 %spec.select.idx.i
  br i1 %or.cond48.not.i, label %43, label %_ZL11utf8_decodePKcPi.exit.thread

43:                                               ; preds = %38, %14
  %.038.i = phi ptr [ %spec.select.i, %38 ], [ %16, %14 ]
  %.032.i = phi i32 [ %35, %38 ], [ %18, %14 ]
  %44 = getelementptr inbounds nuw i8, ptr %.038.i, i64 1
  %45 = load i8, ptr %44, align 1, !tbaa !8
  %46 = icmp slt i8 %45, -64
  br i1 %46, label %_ZL11utf8_decodePKcPi.exit.thread, label %47

_ZL11utf8_decodePKcPi.exit.thread:                ; preds = %21, %30, %38, %43
  call void (ptr, ptr, ...) @_Z11luaL_errorLP9lua_StatePKcz(ptr noundef %0, ptr noundef nonnull @.str.12) #5
  unreachable

47:                                               ; preds = %43
  %48 = add nsw i32 %.017, 1
  call void @_Z15lua_pushintegerP9lua_Statei(ptr noundef %0, i32 noundef %48)
  call void @_Z15lua_pushintegerP9lua_Statei(ptr noundef %0, i32 noundef %.032.i)
  br label %49

49:                                               ; preds = %.loopexit, %47
  %.0 = phi i32 [ 2, %47 ], [ 0, %.loopexit ]
  call void @llvm.lifetime.end.p0(i64 8, ptr nonnull %2) #4
  ret i32 %.0
}